; ModuleID = 'source-C-CXX/27/485.c'
source_filename = "source-C-CXX/27/485.c"
target datalayout = "e-m:e-p270:32:32-p271:32:32-p272:64:64-i64:64-f80:128-n8:16:32:64-S128"
target triple = "x86_64-pc-linux-gnu"

%struct._IO_FILE = type { i32, i8*, i8*, i8*, i8*, i8*, i8*, i8*, i8*, i8*, i8*, i8*, %struct._IO_marker*, %struct._IO_FILE*, i32, i32, i64, i16, i8, [1 x i8], i8*, i64, %struct._IO_codecvt*, %struct._IO_wide_data*, %struct._IO_FILE*, i8*, i64, i32, [20 x i8] }
%struct._IO_marker = type opaque
%struct._IO_codecvt = type opaque
%struct._IO_wide_data = type opaque

@.str = private unnamed_addr constant [4 x i8] c"%d,\00", align 1
@.str.1 = private unnamed_addr constant [4 x i8] c"%d\0A\00", align 1
@stdin = external local_unnamed_addr global %struct._IO_FILE*, align 8

; Function Attrs: nofree nounwind sspstrong uwtable
define dso_local void @main() local_unnamed_addr #0 {
  %1 = alloca [300 x i32], align 16
  %2 = bitcast [300 x i32]* %1 to i8*
  call void @llvm.lifetime.start.p0i8(i64 1200, i8* nonnull %2) #4
  call void @llvm.memset.p0i8.i64(i8* noundef nonnull align 16 dereferenceable(1200) %2, i8 0, i64 1200, i1 false)
  br label %3

3:                                                ; preds = %16, %0
  %4 = phi i32 [ %19, %16 ], [ 0, %0 ]
  br label %5

5:                                                ; preds = %3, %13
  %6 = phi i1 [ false, %3 ], [ true, %13 ]
  %7 = phi i32 [ 0, %3 ], [ %14, %13 ]
  br label %8

8:                                                ; preds = %5, %15
  %9 = phi i1 [ false, %15 ], [ %6, %5 ]
  %10 = load %struct._IO_FILE*, %struct._IO_FILE** @stdin, align 8, !tbaa !5
  %11 = tail call i32 @getc(%struct._IO_FILE* %10) #4
  %12 = shl i32 %11, 24
  switch i32 %12, label %13 [
    i32 167772160, label %20
    i32 536870912, label %15
  ]

13:                                               ; preds = %8
  %14 = add nuw nsw i32 %7, 1
  br label %5, !llvm.loop !9

15:                                               ; preds = %8
  br i1 %9, label %16, label %8, !llvm.loop !9

16:                                               ; preds = %15
  %17 = zext i32 %4 to i64
  %18 = getelementptr inbounds [300 x i32], [300 x i32]* %1, i64 0, i64 %17
  store i32 %7, i32* %18, align 4, !tbaa !11
  %19 = add nuw nsw i32 %4, 1
  br label %3, !llvm.loop !9

20:                                               ; preds = %8
  %21 = zext i32 %4 to i64
  %22 = getelementptr inbounds [300 x i32], [300 x i32]* %1, i64 0, i64 %21
  store i32 %7, i32* %22, align 4, !tbaa !11
  %23 = icmp eq i32 %4, 0
  br i1 %23, label %33, label %24

24:                                               ; preds = %20
  %25 = zext i32 %4 to i64
  br label %26

26:                                               ; preds = %24, %26
  %27 = phi i64 [ 0, %24 ], [ %31, %26 ]
  %28 = getelementptr inbounds [300 x i32], [300 x i32]* %1, i64 0, i64 %27
  %29 = load i32, i32* %28, align 4, !tbaa !11
  %30 = tail call i32 (i8*, ...) @printf(i8* nonnull dereferenceable(1) getelementptr inbounds ([4 x i8], [4 x i8]* @.str, i64 0, i64 0), i32 %29)
  %31 = add nuw nsw i64 %27, 1
  %32 = icmp eq i64 %31, %25
  br i1 %32, label %33, label %26, !llvm.loop !13

33:                                               ; preds = %26, %20
  %34 = phi i32 [ 0, %20 ], [ %4, %26 ]
  %35 = zext i32 %34 to i64
  %36 = getelementptr inbounds [300 x i32], [300 x i32]* %1, i64 0, i64 %35
  %37 = load i32, i32* %36, align 4, !tbaa !11
  %38 = tail call i32 (i8*, ...) @printf(i8* nonnull dereferenceable(1) getelementptr inbounds ([4 x i8], [4 x i8]* @.str.1, i64 0, i64 0), i32 %37)
  call void @llvm.lifetime.end.p0i8(i64 1200, i8* nonnull %2) #4
  ret void
}

; Function Attrs: argmemonly mustprogress nofree nosync nounwind willreturn
declare void @llvm.lifetime.start.p0i8(i64 immarg, i8* nocapture) #1

; Function Attrs: argmemonly mustprogress nofree nounwind willreturn writeonly
declare void @llvm.memset.p0i8.i64(i8* nocapture writeonly, i8, i64, i1 immarg) #2

; Function Attrs: nofree nounwind
declare noundef i32 @printf(i8* nocapture noundef readonly, ...) local_unnamed_addr #3

; Function Attrs: argmemonly mustprogress nofree nosync nounwind willreturn
declare void @llvm.lifetime.end.p0i8(i64 immarg, i8* nocapture) #1

; Function Attrs: nofree nounwind
declare noundef i32 @getc(%struct._IO_FILE* nocapture noundef) local_unnamed_addr #3


!llvm.module.flags = !{!0, !1, !2, !3}
!llvm.ident = !{!4}

!0 = !{i32 1, !"wchar_size", i32 4}
!1 = !{i32 7, !"PIC Level", i32 2}
!2 = !{i32 7, !"PIE Level", i32 2}
!3 = !{i32 7, !"uwtable", i32 1}
!4 = !{!"clang version 13.0.0"}
!5 = !{!6, !6, i64 0}
!6 = !{!"any pointer", !7, i64 0}
!7 = !{!"omnipotent char", !8, i64 0}
!8 = !{!"Simple C/C++ TBAA"}
!9 = distinct !{!9, !10}
!10 = !{!"llvm.loop.mustprogress"}
!11 = !{!12, !12, i64 0}
!12 = !{!"int", !7, i64 0}
!13 = distinct !{!13, !10}
